; Function Attrs: mustprogress nounwind uwtable
define hidden noundef zeroext i1 @_ZN4llvh3sys4path11is_absoluteERKNS_5TwineENS1_5StyleE(ptr noundef nonnull align 8 dereferenceable(18) %path, i32 noundef %style) local_unnamed_addr #0 {
entry:
  %path_storage.i = alloca %"class.llvh::SmallString.11", align 8
  %path_storage = alloca %"class.llvh::SmallString.11", align 8
  %p = alloca %"class.llvh::StringRef", align 8
  %ref.tmp = alloca %"class.llvh::Twine", align 8
  %ref.tmp3 = alloca %"class.llvh::Twine", align 8
  %add.ptr.i.i.i.i.i.i = getelementptr inbounds i8, ptr %path_storage, i64 16
  store ptr %add.ptr.i.i.i.i.i.i, ptr %path_storage, align 8
  %Size.i.i.i.i.i.i = getelementptr inbounds i8, ptr %path_storage, i64 8
  store i32 0, ptr %Size.i.i.i.i.i.i, align 8
  %Capacity2.i.i.i.i.i.i = getelementptr inbounds i8, ptr %path_storage, i64 12
  store i32 128, ptr %Capacity2.i.i.i.i.i.i, align 4
  %call = call { ptr, i64 } @_ZNK4llvh5Twine11toStringRefERNS_15SmallVectorImplIcEE(ptr noundef nonnull align 8 dereferenceable(18) %path, ptr noundef nonnull align 8 dereferenceable(16) %path_storage)
  %0 = extractvalue { ptr, i64 } %call, 0
  store ptr %0, ptr %p, align 8
  %1 = getelementptr inbounds i8, ptr %p, i64 8
  %2 = extractvalue { ptr, i64 } %call, 1
  store i64 %2, ptr %1, align 8
  %LHSKind.i = getelementptr inbounds i8, ptr %ref.tmp, i64 16
  store i8 5, ptr %LHSKind.i, align 8
  %RHSKind.i = getelementptr inbounds i8, ptr %ref.tmp, i64 17
  store i8 1, ptr %RHSKind.i, align 1
  store ptr %p, ptr %ref.tmp, align 8
  call void @llvm.lifetime.start.p0(i64 144, ptr nonnull %path_storage.i)
  %add.ptr.i.i.i.i.i.i.i = getelementptr inbounds i8, ptr %path_storage.i, i64 16
  store ptr %add.ptr.i.i.i.i.i.i.i, ptr %path_storage.i, align 8
  %Size.i.i.i.i.i.i.i = getelementptr inbounds i8, ptr %path_storage.i, i64 8
  store i32 0, ptr %Size.i.i.i.i.i.i.i, align 8
  %Capacity2.i.i.i.i.i.i.i = getelementptr inbounds i8, ptr %path_storage.i, i64 12
  store i32 128, ptr %Capacity2.i.i.i.i.i.i.i, align 4
  %call.i = call { ptr, i64 } @_ZNK4llvh5Twine11toStringRefERNS_15SmallVectorImplIcEE(ptr noundef nonnull align 8 dereferenceable(18) %ref.tmp, ptr noundef nonnull align 8 dereferenceable(16) %path_storage.i)
  %3 = extractvalue { ptr, i64 } %call.i, 0
  %4 = extractvalue { ptr, i64 } %call.i, 1
  %call1.i = call { ptr, i64 } @_ZN4llvh3sys4path14root_directoryENS_9StringRefENS1_5StyleE(ptr %3, i64 %4, i32 noundef %style)
  %5 = load ptr, ptr %path_storage.i, align 8
  %cmp.i.i.i.i.i = icmp eq ptr %5, %add.ptr.i.i.i.i.i.i.i
  br i1 %cmp.i.i.i.i.i, label %_ZN4llvh3sys4path18has_root_directoryERKNS_5TwineENS1_5StyleE.exit, label %if.then.i.i.i.i

if.then.i.i.i.i:                                  ; preds = %entry
  call void @free(ptr noundef %5) #29
  br label %_ZN4llvh3sys4path18has_root_directoryERKNS_5TwineENS1_5StyleE.exit

_ZN4llvh3sys4path18has_root_directoryERKNS_5TwineENS1_5StyleE.exit: ; preds = %entry, %if.then.i.i.i.i
  call void @llvm.lifetime.end.p0(i64 144, ptr nonnull %path_storage.i)
  %cmp.i.not = icmp eq i32 %style, 0
  br i1 %cmp.i.not, label %lor.rhs, label %lor.end

lor.rhs:                                          ; preds = %_ZN4llvh3sys4path18has_root_directoryERKNS_5TwineENS1_5StyleE.exit
  %LHSKind.i3 = getelementptr inbounds i8, ptr %ref.tmp3, i64 16
  store i8 5, ptr %LHSKind.i3, align 8
  %RHSKind.i4 = getelementptr inbounds i8, ptr %ref.tmp3, i64 17
  store i8 1, ptr %RHSKind.i4, align 1
  store ptr %p, ptr %ref.tmp3, align 8
  %call4 = call noundef zeroext i1 @_ZN4llvh3sys4path13has_root_nameERKNS_5TwineENS1_5StyleE(ptr noundef nonnull align 8 dereferenceable(18) %ref.tmp3, i32 noundef 0)
  br label %lor.end

lor.end:                                          ; preds = %lor.rhs, %_ZN4llvh3sys4path18has_root_directoryERKNS_5TwineENS1_5StyleE.exit
  %6 = phi i1 [ true, %_ZN4llvh3sys4path18has_root_directoryERKNS_5TwineENS1_5StyleE.exit ], [ %call4, %lor.rhs ]
  %7 = load ptr, ptr %path_storage, align 8
  %cmp.i.i.i.i = icmp eq ptr %7, %add.ptr.i.i.i.i.i.i
  br i1 %cmp.i.i.i.i, label %_ZN4llvh11SmallStringILj128EED2Ev.exit, label %if.then.i.i.i

if.then.i.i.i:                                    ; preds = %lor.end
  call void @free(ptr noundef %7) #29
  br label %_ZN4llvh11SmallStringILj128EED2Ev.exit

_ZN4llvh11SmallStringILj128EED2Ev.exit:           ; preds = %lor.end, %if.then.i.i.i
  %8 = extractvalue { ptr, i64 } %call1.i, 1
  %cmp.i.i = icmp ne i64 %8, 0
  %9 = and i1 %cmp.i.i, %6
  ret i1 %9
}